(dp0
S'effBB'
p1
(dp2
S'params'
p3
(ccopy_reg
_reconstructor
p4
(cuncertainties.core
AffineScalarFunc
p5
c__builtin__
object
p6
Ntp7
Rp8
(dp9
S'_linear_part'
p10
g4
(cuncertainties.core
LinearCombination
p11
g6
Ntp12
Rp13
((dp14
g4
(cuncertainties.core
Variable
p15
g6
Ntp16
Rp17
(dp18
g10
g4
(g11
g6
Ntp19
Rp20
((dp21
g17
F1.0
stp22
bsS'_nominal_value'
p23
F0.0
sS'_std_dev'
p24
g4
(cuncertainties.core
CallableStdDev
p25
c__builtin__
float
p26
F8.16325216226187e-06
tp27
Rp28
sS'tag'
p29
Nsbcnumpy.core.multiarray
scalar
p30
(cnumpy
dtype
p31
(S'f8'
p32
I0
I1
tp33
Rp34
(I3
S'<'
p35
NNNI-1
I-1
I0
tp36
bS'\xf6-m\xa6[\xfe\xef\xbf'
p37
tp38
Rp39
sg4
(g15
g6
Ntp40
Rp41
(dp42
g10
g4
(g11
g6
Ntp43
Rp44
((dp45
g41
F1.0
stp46
bsg23
F0.0
sg24
g4
(g25
g26
F0.0007080298892501863
tp47
Rp48
sg29
Nsbg30
(g34
S'\x9a\x16tV\\\x80\x94\xbf'
p49
tp50
Rp51
stp52
bsg23
F2.673774773831461e-05
sbg4
(g5
g6
Ntp53
Rp54
(dp55
g10
g4
(g11
g6
Ntp56
Rp57
((dp58
g17
g30
(g34
S'\x9a\x16tV\\\x80\x94\xbf'
p59
tp60
Rp61
sg41
g30
(g34
S'\xf6-m\xa6[\xfe\xef?'
p62
tp63
Rp64
stp65
bsg23
F1.0004700140058889
sbtp66
sS'name'
p67
S'linear'
p68
ssS'effEE'
p69
(dp70
g3
(g4
(g5
g6
Ntp71
Rp72
(dp73
g10
g4
(g11
g6
Ntp74
Rp75
((dp76
g4
(g15
g6
Ntp77
Rp78
(dp79
g10
g4
(g11
g6
Ntp80
Rp81
((dp82
g78
F1.0
stp83
bsg23
F0.0
sg24
g4
(g25
g26
F1.3870380718103264e-05
tp84
Rp85
sg29
Nsbg30
(g34
S'\xd0\x1by\xa6[\xfe\xef\xbf'
p86
tp87
Rp88
sg4
(g15
g6
Ntp89
Rp90
(dp91
g10
g4
(g11
g6
Ntp92
Rp93
((dp94
g90
F1.0
stp95
bsg23
F0.0
sg24
g4
(g25
g26
F0.0012030336913788839
tp96
Rp97
sg29
Nsbg30
(g34
S'\xad@\xfd\x0b\\\x80\x94\xbf'
p98
tp99
Rp100
stp101
bsg23
F9.380624258048531e-05
sbg4
(g5
g6
Ntp102
Rp103
(dp104
g10
g4
(g11
g6
Ntp105
Rp106
((dp107
g78
g30
(g34
S'\xad@\xfd\x0b\\\x80\x94\xbf'
p108
tp109
Rp110
sg90
g30
(g34
S'\xd0\x1by\xa6[\xfe\xef?'
p111
tp112
Rp113
stp114
bsg23
F0.9994196779635172
sbtp115
sg67
g68
ssS'effBE'
p116
(dp117
g3
(g4
(g5
g6
Ntp118
Rp119
(dp120
g10
g4
(g11
g6
Ntp121
Rp122
((dp123
g4
(g15
g6
Ntp124
Rp125
(dp126
g10
g4
(g11
g6
Ntp127
Rp128
((dp129
g125
F1.0
stp130
bsg23
F0.0
sg24
g4
(g25
g26
F1.2544625133847642e-05
tp131
Rp132
sg29
Nsbg30
(g34
S'Bt\xb6\xa6[\xfe\xef\xbf'
p133
tp134
Rp135
sg4
(g15
g6
Ntp136
Rp137
(dp138
g10
g4
(g11
g6
Ntp139
Rp140
((dp141
g137
F1.0
stp142
bsg23
F0.0
sg24
g4
(g25
g26
F0.00108804587203737
tp143
Rp144
sg29
Nsbg30
(g34
S'\xe6\x86\x0e\x8dZ\x80\x94\xbf'
p145
tp146
Rp147
stp148
bsg23
F0.0001134709003726142
sbg4
(g5
g6
Ntp149
Rp150
(dp151
g10
g4
(g11
g6
Ntp152
Rp153
((dp154
g125
g30
(g34
S'\xe6\x86\x0e\x8dZ\x80\x94\xbf'
p155
tp156
Rp157
sg137
g30
(g34
S'Bt\xb6\xa6[\xfe\xef?'
p158
tp159
Rp160
stp161
bsg23
F0.9973889614651738
sbtp162
sg67
g68
ss.