(dp0
S'HLT'
p1
(dp2
S'params'
p3
(ccopy_reg
_reconstructor
p4
(cuncertainties.core
AffineScalarFunc
p5
c__builtin__
object
p6
Ntp7
Rp8
(dp9
S'_linear_part'
p10
g4
(cuncertainties.core
LinearCombination
p11
g6
Ntp12
Rp13
((dp14
g4
(cuncertainties.core
Variable
p15
g6
Ntp16
Rp17
(dp18
g10
g4
(g11
g6
Ntp19
Rp20
((dp21
g17
F1.0
stp22
bsS'_nominal_value'
p23
F0.0
sS'_std_dev'
p24
g4
(cuncertainties.core
CallableStdDev
p25
c__builtin__
float
p26
F4.417365732697392e-06
tp27
Rp28
sS'tag'
p29
Nsbcnumpy.core.multiarray
scalar
p30
(cnumpy
dtype
p31
(S'f8'
p32
I0
I1
tp33
Rp34
(I3
S'<'
p35
NNNI-1
I-1
I0
tp36
bS'[\x04\xbf\xc2e\xfe\xef\xbf'
p37
tp38
Rp39
sg4
(g15
g6
Ntp40
Rp41
(dp42
g10
g4
(g11
g6
Ntp43
Rp44
((dp45
g41
F1.0
stp46
bsg23
F0.0
sg24
g4
(g25
g26
F0.00038784982472975574
tp47
Rp48
sg29
Nsbg30
(g34
S'w`\xf7\x19\xdd@\x94\xbf'
p49
tp50
Rp51
stp52
bsg23
F0.00018382172442134295
sbg4
(g5
g6
Ntp53
Rp54
(dp55
g10
g4
(g11
g6
Ntp56
Rp57
((dp58
g17
g30
(g34
S'w`\xf7\x19\xdd@\x94\xbf'
p59
tp60
Rp61
sg41
g30
(g34
S'[\x04\xbf\xc2e\xfe\xef?'
p62
tp63
Rp64
stp65
bsg23
F1.0021667188078618
sbtp66
sS'name'
p67
S'linear'
p68
ssS'eff'
p69
(dp70
g3
(g4
(g5
g6
Ntp71
Rp72
(dp73
g10
g4
(g11
g6
Ntp74
Rp75
((dp76
g4
(g15
g6
Ntp77
Rp78
(dp79
g10
g4
(g11
g6
Ntp80
Rp81
((dp82
g78
F1.0
stp83
bsg23
F0.0
sg24
g4
(g25
g26
F4.499960230910523e-06
tp84
Rp85
sg29
Nsbg30
(g34
S'\x0f\xff\xcd\xc2e\xfe\xef\xbf'
p86
tp87
Rp88
sg4
(g15
g6
Ntp89
Rp90
(dp91
g10
g4
(g11
g6
Ntp92
Rp93
((dp94
g90
F1.0
stp95
bsg23
F0.0
sg24
g4
(g25
g26
F0.00039510169692499593
tp96
Rp97
sg29
Nsbg30
(g34
S'J\rQ\xbb\xdc@\x94\xbf'
p98
tp99
Rp100
stp101
bsg23
F0.00017273175658261624
sbg4
(g5
g6
Ntp102
Rp103
(dp104
g10
g4
(g11
g6
Ntp105
Rp106
((dp107
g78
g30
(g34
S'J\rQ\xbb\xdc@\x94\xbf'
p108
tp109
Rp110
sg90
g30
(g34
S'\x0f\xff\xcd\xc2e\xfe\xef?'
p111
tp112
Rp113
stp114
bsg23
F1.0022195934929496
sbtp115
sg67
g68
ssS'effTrgBB'
p116
(dp117
g3
(g4
(g5
g6
Ntp118
Rp119
(dp120
g10
g4
(g11
g6
Ntp121
Rp122
((dp123
g4
(g15
g6
Ntp124
Rp125
(dp126
g10
g4
(g11
g6
Ntp127
Rp128
((dp129
g125
F1.0
stp130
bsg23
F0.0
sg24
g4
(g25
g26
F3.783958766490822e-06
tp131
Rp132
sg29
Nsbg30
(g34
S'R.\xbb\xc2e\xfe\xef\xbf'
p133
tp134
Rp135
sg4
(g15
g6
Ntp136
Rp137
(dp138
g10
g4
(g11
g6
Ntp139
Rp140
((dp141
g137
F1.0
stp142
bsg23
F0.0
sg24
g4
(g25
g26
F0.00033223594330964167
tp143
Rp144
sg29
Nsbg30
(g34
S'\xb8\x9142\xdd@\x94\xbf'
p145
tp146
Rp147
stp148
bsg23
F6.418948187847384e-05
sbg4
(g5
g6
Ntp149
Rp150
(dp151
g10
g4
(g11
g6
Ntp152
Rp153
((dp154
g125
g30
(g34
S'\xb8\x9142\xdd@\x94\xbf'
p155
tp156
Rp157
sg137
g30
(g34
S'R.\xbb\xc2e\xfe\xef?'
p158
tp159
Rp160
stp161
bsg23
F1.0013154331163787
sbtp162
sg67
g68
ssS'effRecoEE'
p163
(dp164
g3
(g4
(g5
g6
Ntp165
Rp166
(dp167
g10
g4
(g11
g6
Ntp168
Rp169
((dp170
g4
(g15
g6
Ntp171
Rp172
(dp173
g10
g4
(g11
g6
Ntp174
Rp175
((dp176
g172
F1.0
stp177
bsg23
F0.0
sg24
g4
(g25
g26
F6.406522676434262e-06
tp178
Rp179
sg29
Nsbg30
(g34
S'{+\xf8\xc2e\xfe\xef\xbf'
p180
tp181
Rp182
sg4
(g15
g6
Ntp183
Rp184
(dp185
g10
g4
(g11
g6
Ntp186
Rp187
((dp188
g184
F1.0
stp189
bsg23
F0.0
sg24
g4
(g25
g26
F0.0005625004474033736
tp190
Rp191
sg29
Nsbg30
(g34
S'\x90\xb4\xd5\xb0\xdb@\x94\xbf'
p192
tp193
Rp194
stp195
bsg23
F-7.035201161409432e-06
sbg4
(g5
g6
Ntp196
Rp197
(dp198
g10
g4
(g11
g6
Ntp199
Rp200
((dp201
g172
g30
(g34
S'\x90\xb4\xd5\xb0\xdb@\x94\xbf'
p202
tp203
Rp204
sg184
g30
(g34
S'{+\xf8\xc2e\xfe\xef?'
p205
tp206
Rp207
stp208
bsg23
F1.0002256119682782
sbtp209
sg67
g68
ssS'effTrgBE'
p210
(dp211
g3
(g4
(g5
g6
Ntp212
Rp213
(dp214
g10
g4
(g11
g6
Ntp215
Rp216
((dp217
g4
(g15
g6
Ntp218
Rp219
(dp220
g10
g4
(g11
g6
Ntp221
Rp222
((dp223
g219
F1.0
stp224
bsg23
F0.0
sg24
g4
(g25
g26
F3.92208469545e-06
tp225
Rp226
sg29
Nsbg30
(g34
S'Rw\xb0\xc2e\xfe\xef\xbf'
p227
tp228
Rp229
sg4
(g15
g6
Ntp230
Rp231
(dp232
g10
g4
(g11
g6
Ntp233
Rp234
((dp235
g231
F1.0
stp236
bsg23
F0.0
sg24
g4
(g25
g26
F0.00034436385827473485
tp237
Rp238
sg29
Nsbg30
(g34
S'\xad\xc9\xe8u\xdd@\x94\xbf'
p239
tp240
Rp241
stp242
bsg23
F0.00013101116154012882
sbg4
(g5
g6
Ntp243
Rp244
(dp245
g10
g4
(g11
g6
Ntp246
Rp247
((dp248
g219
g30
(g34
S'\xad\xc9\xe8u\xdd@\x94\xbf'
p249
tp250
Rp251
sg231
g30
(g34
S'Rw\xb0\xc2e\xfe\xef?'
p252
tp253
Rp254
stp255
bsg23
F1.0021305041007404
sbtp256
sg67
g68
ssS'effTrg'
p257
(dp258
g3
(g4
(g5
g6
Ntp259
Rp260
(dp261
g10
g4
(g11
g6
Ntp262
Rp263
((dp264
g4
(g15
g6
Ntp265
Rp266
(dp267
g10
g4
(g11
g6
Ntp268
Rp269
((dp270
g266
F1.0
stp271
bsg23
F0.0
sg24
g4
(g25
g26
F4.342212757070253e-06
tp272
Rp273
sg29
Nsbg30
(g34
S'#\xbb\xc5\xc2e\xfe\xef\xbf'
p274
tp275
Rp276
sg4
(g15
g6
Ntp277
Rp278
(dp279
g10
g4
(g11
g6
Ntp280
Rp281
((dp282
g278
F1.0
stp283
bsg23
F0.0
sg24
g4
(g25
g26
F0.00038125120910077943
tp284
Rp285
sg29
Nsbg30
(g34
S'\x88\xf4\x8a\xef\xdc@\x94\xbf'
p286
tp287
Rp288
stp289
bsg23
F0.00017792200149765254
sbg4
(g5
g6
Ntp290
Rp291
(dp292
g10
g4
(g11
g6
Ntp293
Rp294
((dp295
g266
g30
(g34
S'\x88\xf4\x8a\xef\xdc@\x94\xbf'
p296
tp297
Rp298
sg278
g30
(g34
S'#\xbb\xc5\xc2e\xfe\xef?'
p299
tp300
Rp301
stp302
bsg23
F1.0021521032227123
sbtp303
sg67
g68
ssS'effBB'
p304
(dp305
g3
(g4
(g5
g6
Ntp306
Rp307
(dp308
g10
g4
(g11
g6
Ntp309
Rp310
((dp311
g4
(g15
g6
Ntp312
Rp313
(dp314
g10
g4
(g11
g6
Ntp315
Rp316
((dp317
g313
F1.0
stp318
bsg23
F0.0
sg24
g4
(g25
g26
F7.747934277640936e-06
tp319
Rp320
sg29
Nsbg30
(g34
S'#j\xb5\xc2e\xfe\xef\xbf'
p321
tp322
Rp323
sg4
(g15
g6
Ntp324
Rp325
(dp326
g10
g4
(g11
g6
Ntp327
Rp328
((dp329
g325
F1.0
stp330
bsg23
F0.0
sg24
g4
(g25
g26
F0.0006802775118583267
tp331
Rp332
sg29
Nsbg30
(g34
S"+'\xa4V\xdd@\x94\xbf"
p333
tp334
Rp335
stp336
bsg23
F4.665032871331576e-05
sbg4
(g5
g6
Ntp337
Rp338
(dp339
g10
g4
(g11
g6
Ntp340
Rp341
((dp342
g313
g30
(g34
S"+'\xa4V\xdd@\x94\xbf"
p343
tp344
Rp345
sg325
g30
(g34
S'#j\xb5\xc2e\xfe\xef?'
p346
tp347
Rp348
stp349
bsg23
F1.003262314915816
sbtp350
sg67
g68
ssS'effRecoBE'
p351
(dp352
g3
(g4
(g5
g6
Ntp353
Rp354
(dp355
g10
g4
(g11
g6
Ntp356
Rp357
((dp358
g4
(g15
g6
Ntp359
Rp360
(dp361
g10
g4
(g11
g6
Ntp362
Rp363
((dp364
g360
F1.0
stp365
bsg23
F0.0
sg24
g4
(g25
g26
F7.11093248096302e-06
tp366
Rp367
sg29
Nsbg30
(g34
S'4lx\xc2e\xfe\xef\xbf'
p368
tp369
Rp370
sg4
(g15
g6
Ntp371
Rp372
(dp373
g10
g4
(g11
g6
Ntp374
Rp375
((dp376
g372
F1.0
stp377
bsg23
F0.0
sg24
g4
(g25
g26
F0.0006243337692916788
tp378
Rp379
sg29
Nsbg30
(g34
S'\x89\xd9\x07\xd8\xde@\x94\xbf'
p380
tp381
Rp382
stp383
bsg23
F4.7050002507312526e-06
sbg4
(g5
g6
Ntp384
Rp385
(dp386
g10
g4
(g11
g6
Ntp387
Rp388
((dp389
g360
g30
(g34
S'\x89\xd9\x07\xd8\xde@\x94\xbf'
p390
tp391
Rp392
sg372
g30
(g34
S'4lx\xc2e\xfe\xef?'
p393
tp394
Rp395
stp396
bsg23
F0.9991488772234588
sbtp397
sg67
g68
ssS'effRecoBB'
p398
(dp399
g3
(g4
(g5
g6
Ntp400
Rp401
(dp402
g10
g4
(g11
g6
Ntp403
Rp404
((dp405
g4
(g15
g6
Ntp406
Rp407
(dp408
g10
g4
(g11
g6
Ntp409
Rp410
((dp411
g407
F1.0
stp412
bsg23
F0.0
sg24
g4
(g25
g26
F7.901769522825176e-06
tp413
Rp414
sg29
Nsbg30
(g34
S'\x1a\x8e\xc2\xc2e\xfe\xef\xbf'
p415
tp416
Rp417
sg4
(g15
g6
Ntp418
Rp419
(dp420
g10
g4
(g11
g6
Ntp421
Rp422
((dp423
g419
F1.0
stp424
bsg23
F0.0
sg24
g4
(g25
g26
F0.0006937847815265089
tp425
Rp426
sg29
Nsbg30
(g34
S'\x1cH\x9c\x03\xdd@\x94\xbf'
p427
tp428
Rp429
stp430
bsg23
F-1.7488297439305356e-05
sbg4
(g5
g6
Ntp431
Rp432
(dp433
g10
g4
(g11
g6
Ntp434
Rp435
((dp436
g407
g30
(g34
S'\x1cH\x9c\x03\xdd@\x94\xbf'
p437
tp438
Rp439
sg419
g30
(g34
S'\x1a\x8e\xc2\xc2e\xfe\xef?'
p440
tp441
Rp442
stp443
bsg23
F1.001941284320138
sbtp444
sg67
g68
ssS'effEE'
p445
(dp446
g3
(g4
(g5
g6
Ntp447
Rp448
(dp449
g10
g4
(g11
g6
Ntp450
Rp451
((dp452
g4
(g15
g6
Ntp453
Rp454
(dp455
g10
g4
(g11
g6
Ntp456
Rp457
((dp458
g454
F1.0
stp459
bsg23
F0.0
sg24
g4
(g25
g26
F1.0392647962760187e-05
tp460
Rp461
sg29
Nsbg30
(g34
S'X/\xc3\xc2e\xfe\xef\xbf'
p462
tp463
Rp464
sg4
(g15
g6
Ntp465
Rp466
(dp467
g10
g4
(g11
g6
Ntp468
Rp469
((dp470
g466
F1.0
stp471
bsg23
F0.0
sg24
g4
(g25
g26
F0.0009124862333728154
tp472
Rp473
sg29
Nsbg30
(g34
S'=l\xa1\xff\xdc@\x94\xbf'
p474
tp475
Rp476
stp477
bsg23
F0.0003107118816717547
sbg4
(g5
g6
Ntp478
Rp479
(dp480
g10
g4
(g11
g6
Ntp481
Rp482
((dp483
g454
g30
(g34
S'=l\xa1\xff\xdc@\x94\xbf'
p484
tp485
Rp486
sg466
g30
(g34
S'X/\xc3\xc2e\xfe\xef?'
p487
tp488
Rp489
stp490
bsg23
F1.0023956702539603
sbtp491
sg67
g68
ssS'effTrgEE'
p492
(dp493
g3
(g4
(g5
g6
Ntp494
Rp495
(dp496
g10
g4
(g11
g6
Ntp497
Rp498
((dp499
g4
(g15
g6
Ntp500
Rp501
(dp502
g10
g4
(g11
g6
Ntp503
Rp504
((dp505
g501
F1.0
stp506
bsg23
F0.0
sg24
g4
(g25
g26
F9.111256930787526e-06
tp507
Rp508
sg29
Nsbg30
(g34
S'\xfe\xbb\xc9\xc2e\xfe\xef\xbf'
p509
tp510
Rp511
sg4
(g15
g6
Ntp512
Rp513
(dp514
g10
g4
(g11
g6
Ntp515
Rp516
((dp517
g513
F1.0
stp518
bsg23
F0.0
sg24
g4
(g25
g26
F0.0007999785355834433
tp519
Rp520
sg29
Nsbg30
(g34
S'\xd92?\xd6\xdc@\x94\xbf'
p521
tp522
Rp523
stp524
bsg23
F0.0003180501509151279
sbg4
(g5
g6
Ntp525
Rp526
(dp527
g10
g4
(g11
g6
Ntp528
Rp529
((dp530
g501
g30
(g34
S'\xd92?\xd6\xdc@\x94\xbf'
p531
tp532
Rp533
sg513
g30
(g34
S'\xfe\xbb\xc9\xc2e\xfe\xef?'
p534
tp535
Rp536
stp537
bsg23
F1.0021608086035425
sbtp538
sg67
g68
ssS'HLTE'
p539
(dp540
g3
(g4
(g5
g6
Ntp541
Rp542
(dp543
g10
g4
(g11
g6
Ntp544
Rp545
((dp546
g4
(g15
g6
Ntp547
Rp548
(dp549
g10
g4
(g11
g6
Ntp550
Rp551
((dp552
g548
F1.0
stp553
bsg23
F0.0
sg24
g4
(g25
g26
F6.838021682444407e-06
tp554
Rp555
sg29
Nsbg30
(g34
S'\x82\xef\xc6\xc2e\xfe\xef\xbf'
p556
tp557
Rp558
sg4
(g15
g6
Ntp559
Rp560
(dp561
g10
g4
(g11
g6
Ntp562
Rp563
((dp564
g560
F1.0
stp565
bsg23
F0.0
sg24
g4
(g25
g26
F0.0006003860806946249
tp566
Rp567
sg29
Nsbg30
(g34
S'&o\xee\xe7\xdc@\x94\xbf'
p568
tp569
Rp570
stp571
bsg23
F0.0002416654517182281
sbg4
(g5
g6
Ntp572
Rp573
(dp574
g10
g4
(g11
g6
Ntp575
Rp576
((dp577
g548
g30
(g34
S'&o\xee\xe7\xdc@\x94\xbf'
p578
tp579
Rp580
sg560
g30
(g34
S'\x82\xef\xc6\xc2e\xfe\xef?'
p581
tp582
Rp583
stp584
bsg23
F1.0020135990484065
sbtp585
sg67
g68
ssS'effBE'
p586
(dp587
g3
(g4
(g5
g6
Ntp588
Rp589
(dp590
g10
g4
(g11
g6
Ntp591
Rp592
((dp593
g4
(g15
g6
Ntp594
Rp595
(dp596
g10
g4
(g11
g6
Ntp597
Rp598
((dp599
g595
F1.0
stp600
bsg23
F0.0
sg24
g4
(g25
g26
F7.672789489287352e-06
tp601
Rp602
sg29
Nsbg30
(g34
S'\xe7@\xc3\xc2e\xfe\xef\xbf'
p603
tp604
Rp605
sg4
(g15
g6
Ntp606
Rp607
(dp608
g10
g4
(g11
g6
Ntp609
Rp610
((dp611
g607
F1.0
stp612
bsg23
F0.0
sg24
g4
(g25
g26
F0.0006736796983075737
tp613
Rp614
sg29
Nsbg30
(g34
S'\xb5\x842\xff\xdc@\x94\xbf'
p615
tp616
Rp617
stp618
bsg23
F0.00013570394678175113
sbg4
(g5
g6
Ntp619
Rp620
(dp621
g10
g4
(g11
g6
Ntp622
Rp623
((dp624
g595
g30
(g34
S'\xb5\x842\xff\xdc@\x94\xbf'
p625
tp626
Rp627
sg607
g30
(g34
S'\xe7@\xc3\xc2e\xfe\xef?'
p628
tp629
Rp630
stp631
bsg23
F1.0012750897110698
sbtp632
sg67
g68
ssS'HLTB'
p633
(dp634
g3
(g4
(g5
g6
Ntp635
Rp636
(dp637
g10
g4
(g11
g6
Ntp638
Rp639
((dp640
g4
(g15
g6
Ntp641
Rp642
(dp643
g10
g4
(g11
g6
Ntp644
Rp645
((dp646
g642
F1.0
stp647
bsg23
F0.0
sg24
g4
(g25
g26
F2.78547134284856e-06
tp648
Rp649
sg29
Nsbg30
(g34
S'l\x89\xca\xc2e\xfe\xef\xbf'
p650
tp651
Rp652
sg4
(g15
g6
Ntp653
Rp654
(dp655
g10
g4
(g11
g6
Ntp656
Rp657
((dp658
g654
F1.0
stp659
bsg23
F0.0
sg24
g4
(g25
g26
F0.0002445675394007498
tp660
Rp661
sg29
Nsbg30
(g34
S'h*-\xd1\xdc@\x94\xbf'
p662
tp663
Rp664
stp665
bsg23
F9.86887822448379e-05
sbg4
(g5
g6
Ntp666
Rp667
(dp668
g10
g4
(g11
g6
Ntp669
Rp670
((dp671
g642
g30
(g34
S'h*-\xd1\xdc@\x94\xbf'
p672
tp673
Rp674
sg654
g30
(g34
S'l\x89\xca\xc2e\xfe\xef?'
p675
tp676
Rp677
stp678
bsg23
F1.001996180201004
sbtp679
sg67
g68
ssS'effReco'
p680
(dp681
g3
(g4
(g5
g6
Ntp682
Rp683
(dp684
g10
g4
(g11
g6
Ntp685
Rp686
((dp687
g4
(g15
g6
Ntp688
Rp689
(dp690
g10
g4
(g11
g6
Ntp691
Rp692
((dp693
g689
F1.0
stp694
bsg23
F0.0
sg24
g4
(g25
g26
F2.0250290530562984e-06
tp695
Rp696
sg29
Nsbg30
(g34
S'\xfaJ+\xc2e\xfe\xef\xbf'
p697
tp698
Rp699
sg4
(g15
g6
Ntp700
Rp701
(dp702
g10
g4
(g11
g6
Ntp703
Rp704
((dp705
g701
F1.0
stp706
bsg23
F0.0
sg24
g4
(g25
g26
F0.0001777987848652292
tp707
Rp708
sg29
Nsbg30
(g34
S'\x9b\xaec\xbf\xe0@\x94\xbf'
p709
tp710
Rp711
stp712
bsg23
F-5.089985436912414e-06
sbg4
(g5
g6
Ntp713
Rp714
(dp715
g10
g4
(g11
g6
Ntp716
Rp717
((dp718
g689
g30
(g34
S'\x9b\xaec\xbf\xe0@\x94\xbf'
p719
tp720
Rp721
sg701
g30
(g34
S'\xfaJ+\xc2e\xfe\xef?'
p722
tp723
Rp724
stp725
bsg23
F1.000065350120232
sbtp726
sg67
g68
ss.