(dp0
S'effBB'
p1
(dp2
S'params'
p3
(ccopy_reg
_reconstructor
p4
(cuncertainties.core
AffineScalarFunc
p5
c__builtin__
object
p6
Ntp7
Rp8
(dp9
S'_linear_part'
p10
g4
(cuncertainties.core
LinearCombination
p11
g6
Ntp12
Rp13
((dp14
g4
(cuncertainties.core
Variable
p15
g6
Ntp16
Rp17
(dp18
g10
g4
(g11
g6
Ntp19
Rp20
((dp21
g17
F1.0
stp22
bsS'_nominal_value'
p23
F0.0
sS'_std_dev'
p24
g4
(cuncertainties.core
CallableStdDev
p25
c__builtin__
float
p26
F5.2945449364673024e-05
tp27
Rp28
sS'tag'
p29
Nsbcnumpy.core.multiarray
scalar
p30
(cnumpy
dtype
p31
(S'f8'
p32
I0
I1
tp33
Rp34
(I3
S'<'
p35
NNNI-1
I-1
I0
tp36
bS'0%\xe6\x97f\xf8\xef\xbf'
p37
tp38
Rp39
sg4
(g15
g6
Ntp40
Rp41
(dp42
g10
g4
(g11
g6
Ntp43
Rp44
((dp45
g41
F1.0
stp46
bsg23
F0.0
sg24
g4
(g25
g26
F0.002154902116328606
tp47
Rp48
sg29
Nsbg30
(g34
S'%\xc9 ;[\x0c\xa6\xbf'
p49
tp50
Rp51
stp52
bsg23
F0.00025316933852492784
sbg4
(g5
g6
Ntp53
Rp54
(dp55
g10
g4
(g11
g6
Ntp56
Rp57
((dp58
g17
g30
(g34
S'%\xc9 ;[\x0c\xa6\xbf'
p59
tp60
Rp61
sg41
g30
(g34
S'0%\xe6\x97f\xf8\xef?'
p62
tp63
Rp64
stp65
bsg23
F1.0002817390858125
sbg4
(g5
g6
Ntp66
Rp67
(dp68
g10
g4
(g11
g6
Ntp69
Rp70
((dp71
g4
(g15
g6
Ntp72
Rp73
(dp74
g10
g4
(g11
g6
Ntp75
Rp76
((dp77
g73
F1.0
stp78
bsg23
F0.0
sg24
g4
(g25
g26
F5.38828719322367e-05
tp79
Rp80
sg29
Nsbg30
(g34
S'\xe9A<\xa8\xc1\xfe\xef\xbf'
p81
tp82
Rp83
sg4
(g15
g6
Ntp84
Rp85
(dp86
g10
g4
(g11
g6
Ntp87
Rp88
((dp89
g85
F1.0
stp90
bsg23
F0.0
sg24
g4
(g25
g26
F0.014849242721676361
tp91
Rp92
sg29
Nsbg30
(g34
S'\xbc!\x03\xb6k\xd7\x91\xbf'
p93
tp94
Rp95
stp96
bsg23
F0.0021928533240854753
sbg4
(g5
g6
Ntp97
Rp98
(dp99
g10
g4
(g11
g6
Ntp100
Rp101
((dp102
g73
g30
(g34
S'\xbc!\x03\xb6k\xd7\x91\xbf'
p103
tp104
Rp105
sg85
g30
(g34
S'\xe9A<\xa8\xc1\xfe\xef?'
p106
tp107
Rp108
stp109
bsg23
F0.9326491772093626
sbtp110
sS'name'
p111
S'linear_step'
p112
ssS'effEE'
p113
(dp114
g3
(g4
(g5
g6
Ntp115
Rp116
(dp117
g10
g4
(g11
g6
Ntp118
Rp119
((dp120
g4
(g15
g6
Ntp121
Rp122
(dp123
g10
g4
(g11
g6
Ntp124
Rp125
((dp126
g122
F1.0
stp127
bsg23
F0.0
sg24
g4
(g25
g26
F3.767889005648292e-05
tp128
Rp129
sg29
Nsbg30
(g34
S'X\x1b\xfa\x97f\xf8\xef\xbf'
p130
tp131
Rp132
sg4
(g15
g6
Ntp133
Rp134
(dp135
g10
g4
(g11
g6
Ntp136
Rp137
((dp138
g134
F1.0
stp139
bsg23
F0.0
sg24
g4
(g25
g26
F0.0015335477064512216
tp140
Rp141
sg29
Nsbg30
(g34
S'\r\xfd.\x1e[\x0c\xa6\xbf'
p142
tp143
Rp144
stp145
bsg23
F0.00035279073242601487
sbg4
(g5
g6
Ntp146
Rp147
(dp148
g10
g4
(g11
g6
Ntp149
Rp150
((dp151
g122
g30
(g34
S'\r\xfd.\x1e[\x0c\xa6\xbf'
p152
tp153
Rp154
sg134
g30
(g34
S'X\x1b\xfa\x97f\xf8\xef?'
p155
tp156
Rp157
stp158
bsg23
F1.0024961092476565
sbg4
(g5
g6
Ntp159
Rp160
(dp161
g10
g4
(g11
g6
Ntp162
Rp163
((dp164
g4
(g15
g6
Ntp165
Rp166
(dp167
g10
g4
(g11
g6
Ntp168
Rp169
((dp170
g166
F1.0
stp171
bsg23
F0.0
sg24
g4
(g25
g26
F2.743821403890906e-05
tp172
Rp173
sg29
Nsbg30
(g34
S'\x93d=\xa8\xc1\xfe\xef\xbf'
p174
tp175
Rp176
sg4
(g15
g6
Ntp177
Rp178
(dp179
g10
g4
(g11
g6
Ntp180
Rp181
((dp182
g178
F1.0
stp183
bsg23
F0.0
sg24
g4
(g25
g26
F0.007561525831754651
tp184
Rp185
sg29
Nsbg30
(g34
S"2'\xde\xadk\xd7\x91\xbf"
p186
tp187
Rp188
stp189
bsg23
F0.001591499982593048
sbg4
(g5
g6
Ntp190
Rp191
(dp192
g10
g4
(g11
g6
Ntp193
Rp194
((dp195
g166
g30
(g34
S"2'\xde\xadk\xd7\x91\xbf"
p196
tp197
Rp198
sg178
g30
(g34
S'\x93d=\xa8\xc1\xfe\xef?'
p199
tp200
Rp201
stp202
bsg23
F0.9665925899138939
sbtp203
sg111
g112
ssS'effBE'
p204
(dp205
g3
(g4
(g5
g6
Ntp206
Rp207
(dp208
g10
g4
(g11
g6
Ntp209
Rp210
((dp211
g4
(g15
g6
Ntp212
Rp213
(dp214
g10
g4
(g11
g6
Ntp215
Rp216
((dp217
g213
F1.0
stp218
bsg23
F0.0
sg24
g4
(g25
g26
F2.6714708877542656e-05
tp219
Rp220
sg29
Nsbg30
(g34
S'\xcd\x82\xc8\x98f\xf8\xef\xbf'
p221
tp222
Rp223
sg4
(g15
g6
Ntp224
Rp225
(dp226
g10
g4
(g11
g6
Ntp227
Rp228
((dp229
g225
F1.0
stp230
bsg23
F0.0
sg24
g4
(g25
g26
F0.0010873026628656793
tp231
Rp232
sg29
Nsbg30
(g34
S'R\xf2\xe4\xf2Y\x0c\xa6\xbf'
p233
tp234
Rp235
stp236
bsg23
F0.00010349966911749053
sbg4
(g5
g6
Ntp237
Rp238
(dp239
g10
g4
(g11
g6
Ntp240
Rp241
((dp242
g213
g30
(g34
S'R\xf2\xe4\xf2Y\x0c\xa6\xbf'
p243
tp244
Rp245
sg225
g30
(g34
S'\xcd\x82\xc8\x98f\xf8\xef?'
p246
tp247
Rp248
stp249
bsg23
F1.0031751542301899
sbg4
(g5
g6
Ntp250
Rp251
(dp252
g10
g4
(g11
g6
Ntp253
Rp254
((dp255
g4
(g15
g6
Ntp256
Rp257
(dp258
g10
g4
(g11
g6
Ntp259
Rp260
((dp261
g257
F1.0
stp262
bsg23
F0.0
sg24
g4
(g25
g26
F2.2256033229769974e-05
tp263
Rp264
sg29
Nsbg30
(g34
S'\xe8\x0c=\xa8\xc1\xfe\xef\xbf'
p265
tp266
Rp267
sg4
(g15
g6
Ntp268
Rp269
(dp270
g10
g4
(g11
g6
Ntp271
Rp272
((dp273
g269
F1.0
stp274
bsg23
F0.0
sg24
g4
(g25
g26
F0.00613340086850635
tp275
Rp276
sg29
Nsbg30
(g34
S']\x03S\xb0k\xd7\x91\xbf'
p277
tp278
Rp279
stp280
bsg23
F0.002251970702816257
sbg4
(g5
g6
Ntp281
Rp282
(dp283
g10
g4
(g11
g6
Ntp284
Rp285
((dp286
g257
g30
(g34
S']\x03S\xb0k\xd7\x91\xbf'
p287
tp288
Rp289
sg269
g30
(g34
S'\xe8\x0c=\xa8\xc1\xfe\xef?'
p290
tp291
Rp292
stp293
bsg23
F0.9313095303958663
sbtp294
sg111
g112
ss.