(dp0
S'HLT'
p1
(dp2
S'params'
p3
(ccopy_reg
_reconstructor
p4
(cuncertainties.core
AffineScalarFunc
p5
c__builtin__
object
p6
Ntp7
Rp8
(dp9
S'_linear_part'
p10
g4
(cuncertainties.core
LinearCombination
p11
g6
Ntp12
Rp13
((dp14
g4
(cuncertainties.core
Variable
p15
g6
Ntp16
Rp17
(dp18
g10
g4
(g11
g6
Ntp19
Rp20
((dp21
g17
F1.0
stp22
bsS'_nominal_value'
p23
F0.0
sS'_std_dev'
p24
g4
(cuncertainties.core
CallableStdDev
p25
c__builtin__
float
p26
F9.076442970837846e-06
tp27
Rp28
sS'tag'
p29
Nsbcnumpy.core.multiarray
scalar
p30
(cnumpy
dtype
p31
(S'f8'
p32
I0
I1
tp33
Rp34
(I3
S'<'
p35
NNNI-1
I-1
I0
tp36
bS'/\x87~\x1f6D\xed?'
p37
tp38
Rp39
sg4
(g15
g6
Ntp40
Rp41
(dp42
g10
g4
(g11
g6
Ntp43
Rp44
((dp45
g41
F1.0
stp46
bsg23
F0.0
sg24
g4
(g25
g26
F6.316431619808271e-05
tp47
Rp48
sg29
Nsbg30
(g34
S'\xe9K.\xf4L\xc0\xd9?'
p49
tp50
Rp51
sg4
(g15
g6
Ntp52
Rp53
(dp54
g10
g4
(g11
g6
Ntp55
Rp56
((dp57
g53
F1.0
stp58
bsg23
F0.0
sg24
g4
(g25
g26
F0.0012691479588441093
tp59
Rp60
sg29
Nsbg30
(g34
S'\x9f\x1eU\x1aE\xd3\xa4?'
p61
tp62
Rp63
sg4
(g15
g6
Ntp64
Rp65
(dp66
g10
g4
(g11
g6
Ntp67
Rp68
((dp69
g65
F1.0
stp70
bsg23
F0.0
sg24
g4
(g25
g26
F1.3477361413853477
tp71
Rp72
sg29
Nsbg30
(g34
S'B\xc8\xaa\xd1\xc5U\x05?'
p73
tp74
Rp75
stp76
bsg23
F0.0001296515708739647
sbg4
(g5
g6
Ntp77
Rp78
(dp79
g10
g4
(g11
g6
Ntp80
Rp81
((dp82
g17
g30
(g34
S'\x05\xf8X\xfa\xe5\x08\x92?'
p83
tp84
Rp85
sg41
g30
(g34
S'\x9b\x07\x86\x0b,(\xaf?'
p86
tp87
Rp88
sg53
g30
(g34
S'\x82H\x82R\x8b\xef\xef\xbf'
p89
tp90
Rp91
sg65
g30
(g34
S'\x00\x08z\xa7\x06\x11;\xbf'
p92
tp93
Rp94
stp95
bsg23
F1.002857607574599
sbg4
(g5
g6
Ntp96
Rp97
(dp98
g10
g4
(g11
g6
Ntp99
Rp100
((dp101
g17
g30
(g34
S'>\x14e\xae\x9c\xdb\xd9?'
p102
tp103
Rp104
sg41
g30
(g34
S'\xad0`\xc9\x07;\xed\xbf'
p105
tp106
Rp107
sg53
g30
(g34
S'^\x03\xa6\xad\xfc\xdd\xa8\xbf'
p108
tp109
Rp110
sg65
g30
(g34
S'\xa8\xc0\xa8\xd4j\x1a\xf9\xbe'
p111
tp112
Rp113
stp114
bsg23
F0.0013301605728006276
sbg4
(g5
g6
Ntp115
Rp116
(dp117
g10
g4
(g11
g6
Ntp118
Rp119
((dp120
g17
g30
(g34
S'\x00\x1c\xe2\x86hA\xf5\xbe'
p121
tp122
Rp123
sg41
g30
(g34
S'\x00\x10\xc2m\xfe}\xeb\xbe'
p124
tp125
Rp126
sg53
g30
(g34
S'\x00pq~b2;\xbf'
p127
tp128
Rp129
sg65
g30
(g34
S'\xc4H\x9d\xd1\xff\xff\xef?'
p130
tp131
Rp132
stp133
bsg23
F30.392394208024847
sbtp134
sS'name'
p135
S'linear_step'
p136
ssS'eff'
p137
(dp138
g3
(g4
(g5
g6
Ntp139
Rp140
(dp141
g10
g4
(g11
g6
Ntp142
Rp143
((dp144
g4
(g15
g6
Ntp145
Rp146
(dp147
g10
g4
(g11
g6
Ntp148
Rp149
((dp150
g146
F1.0
stp151
bsg23
F0.0
sg24
g4
(g25
g26
F1.0717798689519048e-05
tp152
Rp153
sg29
Nsbg30
(g34
S'\x8d\xa0\xd3\xe4\xa3\x86\xed?'
p154
tp155
Rp156
sg4
(g15
g6
Ntp157
Rp158
(dp159
g10
g4
(g11
g6
Ntp160
Rp161
((dp162
g158
F1.0
stp163
bsg23
F0.0
sg24
g4
(g25
g26
F7.328213227109998e-05
tp164
Rp165
sg29
Nsbg30
(g34
S'"l\x17\xc3F\x8c\xd8?'
p166
tp167
Rp168
sg4
(g15
g6
Ntp169
Rp170
(dp171
g10
g4
(g11
g6
Ntp172
Rp173
((dp174
g170
F1.0
stp175
bsg23
F0.0
sg24
g4
(g25
g26
F0.0014553764645254342
tp176
Rp177
sg29
Nsbg30
(g34
S'\xb3`f\xc4\xba\t\xa4?'
p178
tp179
Rp180
sg4
(g15
g6
Ntp181
Rp182
(dp183
g10
g4
(g11
g6
Ntp184
Rp185
((dp186
g182
F1.0
stp187
bsg23
F0.0
sg24
g4
(g25
g26
F1.4020190915859125
tp188
Rp189
sg29
Nsbg30
(g34
S'f x\xc7\xe3\xbd\x04?'
p190
tp191
Rp192
stp193
bsg23
F0.0001625444790830326
sbg4
(g5
g6
Ntp194
Rp195
(dp196
g10
g4
(g11
g6
Ntp197
Rp198
((dp199
g146
g30
(g34
S'\xec>\x0e\xbe\xff8\x92?'
p200
tp201
Rp202
sg158
g30
(g34
S'\xda\xd3\x1b\x18\x7f9\xae?'
p203
tp204
Rp205
sg170
g30
(g34
S'\x9eh?\xd9i\xf0\xef\xbf'
p206
tp207
Rp208
sg182
g30
(g34
S'\x00\xf0\x065\xeb\x93;\xbf'
p209
tp210
Rp211
stp212
bsg23
F1.002359703793838
sbg4
(g5
g6
Ntp213
Rp214
(dp215
g10
g4
(g11
g6
Ntp216
Rp217
((dp218
g146
g30
(g34
S'\xce\xa7\x198,\xa6\xd8?'
p219
tp220
Rp221
sg158
g30
(g34
S'\xf3\xd3p\xfe\xf6}\xed\xbf'
p222
tp223
Rp224
sg170
g30
(g34
S'oS\xfaC\x9ed\xa8\xbf'
p225
tp226
Rp227
sg182
g30
(g34
S't9c\xe1\x81\xe6\xf2\xbe'
p228
tp229
Rp230
stp231
bsg23
F0.0014690950099405836
sbg4
(g5
g6
Ntp232
Rp233
(dp234
g10
g4
(g11
g6
Ntp235
Rp236
((dp237
g146
g30
(g34
S'\x00\x14\xa9Z\n%\xf7\xbe'
p238
tp239
Rp240
sg158
g30
(g34
S'\x00\x00A\x01\xa8!\xdd\xbe'
p241
tp242
Rp243
sg170
g30
(g34
S'\x00\xe0q\xea\xde\xae;\xbf'
p244
tp245
Rp246
sg182
g30
(g34
S'\xd3\x8c\xf5\xcf\xff\xff\xef?'
p247
tp248
Rp249
stp250
bsg23
F31.848134068228422
sbtp251
sg135
g136
ssS'effTrgBB'
p252
(dp253
g3
(g4
(g5
g6
Ntp254
Rp255
(dp256
g10
g4
(g11
g6
Ntp257
Rp258
((dp259
g4
(g15
g6
Ntp260
Rp261
(dp262
g10
g4
(g11
g6
Ntp263
Rp264
((dp265
g261
F1.0
stp266
bsg23
F0.0
sg24
g4
(g25
g26
F9.316266330372681e-06
tp267
Rp268
sg29
Nsbg30
(g34
S'piS,7\xff\xed?'
p269
tp270
Rp271
sg4
(g15
g6
Ntp272
Rp273
(dp274
g10
g4
(g11
g6
Ntp275
Rp276
((dp277
g273
F1.0
stp278
bsg23
F0.0
sg24
g4
(g25
g26
F6.232030777054016e-05
tp279
Rp280
sg29
Nsbg30
(g34
S'\xaa\xbf\xa9\xfb<*\xd6?'
p281
tp282
Rp283
sg4
(g15
g6
Ntp284
Rp285
(dp286
g10
g4
(g11
g6
Ntp287
Rp288
((dp289
g285
F1.0
stp290
bsg23
F0.0
sg24
g4
(g25
g26
F0.001199468035334644
tp291
Rp292
sg29
Nsbg30
(g34
S'\x0cv\xbf\x82q\xac\xa2?'
p293
tp294
Rp295
sg4
(g15
g6
Ntp296
Rp297
(dp298
g10
g4
(g11
g6
Ntp299
Rp300
((dp301
g297
F1.0
stp302
bsg23
F0.0
sg24
g4
(g25
g26
F1.7252417104911373
tp303
Rp304
sg29
Nsbg30
(g34
S'\x08j\xb0.\xe0\xcc\xfa>'
p305
tp306
Rp307
stp308
bsg23
F0.0001187078614225573
sbg4
(g5
g6
Ntp309
Rp310
(dp311
g10
g4
(g11
g6
Ntp312
Rp313
((dp314
g261
g30
(g34
S'\xc7\xd4\xbe\x19\xcc\x92\x92?'
p315
tp316
Rp317
sg273
g30
(g34
S'?\x80\xcb\xba_\xb0\xac?'
p318
tp319
Rp320
sg285
g30
(g34
S'\xe1\\\xed\x8c\xc7\xf1\xef\xbf'
p321
tp322
Rp323
sg297
g30
(g34
S'\x00\x00v>\xeea3\xbf'
p324
tp325
Rp326
stp327
bsg23
F1.0008859716558212
sbg4
(g5
g6
Ntp328
Rp329
(dp330
g10
g4
(g11
g6
Ntp331
Rp332
((dp333
g261
g30
(g34
S'\x91\xf0<\x17\xdfA\xd6?'
p334
tp335
Rp336
sg273
g30
(g34
S'B\xd6\xb8\x04N\xf7\xed\xbf'
p337
tp338
Rp339
sg285
g30
(g34
S'\xb8\x18\xf1\x92I\xad\xa7\xbf'
p340
tp341
Rp342
sg297
g30
(g34
S'<\xcdG\xfe{w\xe4\xbe'
p343
tp344
Rp345
stp346
bsg23
F0.001022901632906838
sbg4
(g5
g6
Ntp347
Rp348
(dp349
g10
g4
(g11
g6
Ntp350
Rp351
((dp352
g261
g30
(g34
S'\x00\x18\x81H\xb0\xe0\xef\xbe'
p353
tp354
Rp355
sg273
g30
(g34
S'\x00\x80\xed\x1b$\xcd\xb7\xbe'
p356
tp357
Rp358
sg285
g30
(g34
S'\x00\x80\xfbH\x87p3\xbf'
p359
tp360
Rp361
sg297
g30
(g34
S'\x15\xa3Q\xe8\xff\xff\xef?'
p362
tp363
Rp364
stp365
bsg23
F34.68435982732115
sbtp366
sg135
g136
ssS'effRecoEE'
p367
(dp368
g3
(g4
(g5
g6
Ntp369
Rp370
(dp371
g10
g4
(g11
g6
Ntp372
Rp373
((dp374
g4
(g15
g6
Ntp375
Rp376
(dp377
g10
g4
(g11
g6
Ntp378
Rp379
((dp380
g376
F1.0
stp381
bsg23
F0.0
sg24
g4
(g25
g26
F7.683485715711237e-06
tp382
Rp383
sg29
Nsbg30
(g34
S'J\xa6\xcc,G\xec\xed?'
p384
tp385
Rp386
sg4
(g15
g6
Ntp387
Rp388
(dp389
g10
g4
(g11
g6
Ntp390
Rp391
((dp392
g388
F1.0
stp393
bsg23
F0.0
sg24
g4
(g25
g26
F5.1543082851206647e-05
tp394
Rp395
sg29
Nsbg30
(g34
S'\xf8\x8f\x98\x9f\x00\x8f\xd6\xbf'
p396
tp397
Rp398
sg4
(g15
g6
Ntp399
Rp400
(dp401
g10
g4
(g11
g6
Ntp402
Rp403
((dp404
g400
F1.0
stp405
bsg23
F0.0
sg24
g4
(g25
g26
F5.630113942962951
tp406
Rp407
sg29
Nsbg30
(g34
S'\x9b\xc6\xd0A\x1a\x8e\xda>'
p408
tp409
Rp410
sg4
(g15
g6
Ntp411
Rp412
(dp413
g10
g4
(g11
g6
Ntp414
Rp415
((dp416
g412
F1.0
stp417
bsg23
F0.0
sg24
g4
(g25
g26
F0.00099766956378596
tp418
Rp419
sg29
Nsbg30
(g34
S'|]%x\xa2\xe3\xa2?'
p420
tp421
Rp422
stp423
bsg23
F6.797780280423886e-05
sbg4
(g5
g6
Ntp424
Rp425
(dp426
g10
g4
(g11
g6
Ntp427
Rp428
((dp429
g376
g30
(g34
S'`?\xa6H|\x84\x92?'
p430
tp431
Rp432
sg388
g30
(g34
S'78@G\xc1\xee\xac\xbf'
p433
tp434
Rp435
sg400
g30
(g34
S'\x00@\x8c3j\xf6\x12\xbf'
p436
tp437
Rp438
sg412
g30
(g34
S'+O\xa3s\x91\xf1\xef\xbf'
p439
tp440
Rp441
stp442
bsg23
F0.9986103788832721
sbg4
(g5
g6
Ntp443
Rp444
(dp445
g10
g4
(g11
g6
Ntp446
Rp447
((dp448
g376
g30
(g34
S'\xee\xa0a\\\xfc\xa6\xd6?'
p449
tp450
Rp451
sg388
g30
(g34
S'\xb1\x12f\x8f?\xe4\xed?'
p452
tp453
Rp454
sg400
g30
(g34
S'\x04\x144rb\x9f\xc2\xbe'
p455
tp456
Rp457
sg412
g30
(g34
S't\xef|\xdd\x8a\xca\xa7\xbf'
p458
tp459
Rp460
stp461
bsg23
F-0.0002580296271169424
sbg4
(g5
g6
Ntp462
Rp463
(dp464
g10
g4
(g11
g6
Ntp465
Rp466
((dp467
g376
g30
(g34
S'\x00@r\x9b\x9b\x0c\xd0>'
p468
tp469
Rp470
sg388
g30
(g34
S"\x00\x00\xdc'17\x8d\xbe"
p471
tp472
Rp473
sg400
g30
(g34
S'\xffS\x95\xfe\xff\xff\xef\xbf'
p474
tp475
Rp476
sg412
g30
(g34
S'\x00\xc0-\xf0u\x04\x13?'
p477
tp478
Rp479
stp480
bsg23
F34.220841852237285
sbtp481
sg135
g136
ssS'effTrgBE'
p482
(dp483
g3
(g4
(g5
g6
Ntp484
Rp485
(dp486
g10
g4
(g11
g6
Ntp487
Rp488
((dp489
g4
(g15
g6
Ntp490
Rp491
(dp492
g10
g4
(g11
g6
Ntp493
Rp494
((dp495
g491
F1.0
stp496
bsg23
F0.0
sg24
g4
(g25
g26
F1.0273195266450038e-05
tp497
Rp498
sg29
Nsbg30
(g34
S'\x02\xad\xf4\x11\x9dn\xed?'
p499
tp500
Rp501
sg4
(g15
g6
Ntp502
Rp503
(dp504
g10
g4
(g11
g6
Ntp505
Rp506
((dp507
g503
F1.0
stp508
bsg23
F0.0
sg24
g4
(g25
g26
F7.0615340124876e-05
tp509
Rp510
sg29
Nsbg30
(g34
S'\x1cdn\x10\xc5\xfd\xd8?'
p511
tp512
Rp513
sg4
(g15
g6
Ntp514
Rp515
(dp516
g10
g4
(g11
g6
Ntp517
Rp518
((dp519
g515
F1.0
stp520
bsg23
F0.0
sg24
g4
(g25
g26
F1.8312983661610203
tp521
Rp522
sg29
Nsbg30
(g34
S'\xb3\x1c\xe7\xec\xa4\xb0\xfd>'
p523
tp524
Rp525
sg4
(g15
g6
Ntp526
Rp527
(dp528
g10
g4
(g11
g6
Ntp529
Rp530
((dp531
g527
F1.0
stp532
bsg23
F0.0
sg24
g4
(g25
g26
F0.0014095022598417139
tp533
Rp534
sg29
Nsbg30
(g34
S'#\xf7\x94\xaeUO\xa4?'
p535
tp536
Rp537
stp538
bsg23
F0.0001194266199343112
sbg4
(g5
g6
Ntp539
Rp540
(dp541
g10
g4
(g11
g6
Ntp542
Rp543
((dp544
g491
g30
(g34
S"\xbd/\x02\xbco'\x92?"
p545
tp546
Rp547
sg503
g30
(g34
S'52\x8aV\xe4\x87\xae?'
p548
tp549
Rp550
sg515
g30
(g34
S'\x00p\x08D\xa7c3\xbf'
p551
tp552
Rp553
sg527
g30
(g34
S'c*\xfa\xe0!\xf0\xef\xbf'
p554
tp555
Rp556
stp557
bsg23
F1.0019119135269
sbg4
(g5
g6
Ntp558
Rp559
(dp560
g10
g4
(g11
g6
Ntp561
Rp562
((dp563
g491
g30
(g34
S'\x99\xc2\x04\xf6!\x18\xd9?'
p564
tp565
Rp566
sg503
g30
(g34
S'"\xf4\x1a\xd6\xc7e\xed\xbf'
p567
tp568
Rp569
sg515
g30
(g34
S'\x80Z\xedfq\x1c\xe9\xbe'
p570
tp571
Rp572
sg527
g30
(g34
S'\x04<\xba\x05M\x89\xa8\xbf'
p573
tp574
Rp575
stp576
bsg23
F0.0010746671794641062
sbg4
(g5
g6
Ntp577
Rp578
(dp579
g10
g4
(g11
g6
Ntp580
Rp581
((dp582
g491
g30
(g34
S'\x00 \xa8\xb1r\xe2\xf0\xbe'
p583
tp584
Rp585
sg503
g30
(g34
S'\x00@\xff\xb6\x1a\x84\xd2\xbe'
p586
tp587
Rp588
sg515
g30
(g34
S'\xcf\xf3?\xe8\xff\xff\xef?'
p589
tp590
Rp591
sg527
g30
(g34
S'\x00@:\x92\x82v3\xbf'
p592
tp593
Rp594
stp595
bsg23
F31.312253846360996
sbtp596
sg135
g136
ssS'effTrg'
p597
(dp598
g3
(g4
(g5
g6
Ntp599
Rp600
(dp601
g10
g4
(g11
g6
Ntp602
Rp603
((dp604
g4
(g15
g6
Ntp605
Rp606
(dp607
g10
g4
(g11
g6
Ntp608
Rp609
((dp610
g606
F1.0
stp611
bsg23
F0.0
sg24
g4
(g25
g26
F8.851891206896872e-06
tp612
Rp613
sg29
Nsbg30
(g34
S'A\xaeDpp#\xed?'
p614
tp615
Rp616
sg4
(g15
g6
Ntp617
Rp618
(dp619
g10
g4
(g11
g6
Ntp620
Rp621
((dp622
g618
F1.0
stp623
bsg23
F0.0
sg24
g4
(g25
g26
F6.224036003595164e-05
tp624
Rp625
sg29
Nsbg30
(g34
S'\xfd\x16\x9e\xa8\x05R\xda?'
p626
tp627
Rp628
sg4
(g15
g6
Ntp629
Rp630
(dp631
g10
g4
(g11
g6
Ntp632
Rp633
((dp634
g630
F1.0
stp635
bsg23
F0.0
sg24
g4
(g25
g26
F1.5252585741925735
tp636
Rp637
sg29
Nsbg30
(g34
S'.u"\xf7;\xd8\x01?'
p638
tp639
Rp640
sg4
(g15
g6
Ntp641
Rp642
(dp643
g10
g4
(g11
g6
Ntp644
Rp645
((dp646
g642
F1.0
stp647
bsg23
F0.0
sg24
g4
(g25
g26
F0.0012560576878762268
tp648
Rp649
sg29
Nsbg30
(g34
S'\x83\x1c\xd6\x1b-;\xa5?'
p650
tp651
Rp652
stp653
bsg23
F0.0001194118563787953
sbg4
(g5
g6
Ntp654
Rp655
(dp656
g10
g4
(g11
g6
Ntp657
Rp658
((dp659
g606
g30
(g34
S'V\xbc\x7f\x1a\x8b\xf1\x91?'
p660
tp661
Rp662
sg618
g30
(g34
S'*\xe1\xc7&]\xa7\xaf?'
p663
tp664
Rp665
sg630
g30
(g34
S'\x00 O\x90q 6\xbf'
p666
tp667
Rp668
sg642
g30
(g34
S'i\xa8p\x96\x11\xef\xef\xbf'
p669
tp670
Rp671
stp672
bsg23
F1.0028771477006997
sbg4
(g5
g6
Ntp673
Rp674
(dp675
g10
g4
(g11
g6
Ntp676
Rp677
((dp678
g606
g30
(g34
S'\xc2\x9b\x8ac\x19n\xda?'
p679
tp680
Rp681
sg618
g30
(g34
S'U\xe5g\x95\xf9\x19\xed\xbf'
p682
tp683
Rp684
sg630
g30
(g34
S'\xa8M\xe9\xe1\xa5\xd3\xf3\xbe'
p685
tp686
Rp687
sg642
g30
(g34
S'us\x89\xc9*"\xa9\xbf'
p688
tp689
Rp690
stp691
bsg23
F0.0011374475972187382
sbg4
(g5
g6
Ntp692
Rp693
(dp694
g10
g4
(g11
g6
Ntp695
Rp696
((dp697
g606
g30
(g34
S'\x00\xc4\x81\xb7;\x1b\xf2\xbe'
p698
tp699
Rp700
sg618
g30
(g34
S'\x00P\xf41Y\xa4\xe5\xbe'
p701
tp702
Rp703
sg630
g30
(g34
S'\x9aX\xfe\xe0\xff\xff\xef?'
p704
tp705
Rp706
sg642
g30
(g34
S'\x00($\xe6\xfc;6\xbf'
p707
tp708
Rp709
stp710
bsg23
F29.69726319997841
sbtp711
sg135
g136
ssS'effBB'
p712
(dp713
g3
(g4
(g5
g6
Ntp714
Rp715
(dp716
g10
g4
(g11
g6
Ntp717
Rp718
((dp719
g4
(g15
g6
Ntp720
Rp721
(dp722
g10
g4
(g11
g6
Ntp723
Rp724
((dp725
g721
F1.0
stp726
bsg23
F0.0
sg24
g4
(g25
g26
F2.200058836107973e-05
tp727
Rp728
sg29
Nsbg30
(g34
S'\xc3dt\xdb\x8f\xf1\xed?'
p729
tp730
Rp731
sg4
(g15
g6
Ntp732
Rp733
(dp734
g10
g4
(g11
g6
Ntp735
Rp736
((dp737
g733
F1.0
stp738
bsg23
F0.0
sg24
g4
(g25
g26
F0.00014748232837013582
tp739
Rp740
sg29
Nsbg30
(g34
S'\xc2\xb5\xd0\xb6\x16s\xd6?'
p741
tp742
Rp743
sg4
(g15
g6
Ntp744
Rp745
(dp746
g10
g4
(g11
g6
Ntp747
Rp748
((dp749
g745
F1.0
stp750
bsg23
F0.0
sg24
g4
(g25
g26
F0.002850172189101271
tp751
Rp752
sg29
Nsbg30
(g34
S'A\xa0\x00\x8eg\xd4\xa2?'
p753
tp754
Rp755
sg4
(g15
g6
Ntp756
Rp757
(dp758
g10
g4
(g11
g6
Ntp759
Rp760
((dp761
g757
F1.0
stp762
bsg23
F0.0
sg24
g4
(g25
g26
F2.617707921833276
tp763
Rp764
sg29
Nsbg30
(g34
S'Uq\x0cbN\x8f\x04?'
p765
tp766
Rp767
stp768
bsg23
F0.00020727681080657786
sbg4
(g5
g6
Ntp769
Rp770
(dp771
g10
g4
(g11
g6
Ntp772
Rp773
((dp774
g721
g30
(g34
S'U\xa9%\xd3|\x88\x92?'
p775
tp776
Rp777
sg733
g30
(g34
S'\xce\x96\x8b\xfc\xca\xdd\xac?'
p778
tp779
Rp780
sg745
g30
(g34
S'\x1eX\x9a\x02\xa0\xf1\xef\xbf'
p781
tp782
Rp783
sg757
g30
(g34
S'\x00`.\xc6\x1ax=\xbf'
p784
tp785
Rp786
stp787
bsg23
F1.00021556905468
sbg4
(g5
g6
Ntp788
Rp789
(dp790
g10
g4
(g11
g6
Ntp791
Rp792
((dp793
g721
g30
(g34
S'\x9c\xacM\xe6\xf9\x8a\xd6?'
p794
tp795
Rp796
sg733
g30
(g34
S'\xd3\xe1\xa2r\x90\xe9\xed\xbf'
p797
tp798
Rp799
sg745
g30
(g34
S'\xec*c\xae\xc8\xc2\xa7\xbf'
p800
tp801
Rp802
sg757
g30
(g34
S'\x90\xe9\xfa\x13\xf2\x8f\xed\xbe'
p803
tp804
Rp805
stp806
bsg23
F0.0015899074970511316
sbg4
(g5
g6
Ntp807
Rp808
(dp809
g10
g4
(g11
g6
Ntp810
Rp811
((dp812
g721
g30
(g34
S'\x00\xf0F\xe5\xae\xbc\xf8\xbe'
p813
tp814
Rp815
sg733
g30
(g34
S'\x00\x00\xfc \xc2\x83\xba\xbe'
p816
tp817
Rp818
sg745
g30
(g34
S'\x00\xa81\xe3\t\x8e=\xbf'
p819
tp820
Rp821
sg757
g30
(g34
S'\\\xc4A\xc9\xff\xff\xef?'
p822
tp823
Rp824
stp825
bsg23
F34.34957288858004
sbtp826
sg135
g136
ssS'effRecoBE'
p827
(dp828
g3
(g4
(g5
g6
Ntp829
Rp830
(dp831
g10
g4
(g11
g6
Ntp832
Rp833
((dp834
g4
(g15
g6
Ntp835
Rp836
(dp837
g10
g4
(g11
g6
Ntp838
Rp839
((dp840
g836
F1.0
stp841
bsg23
F0.0
sg24
g4
(g25
g26
F9.561639880098003e-06
tp842
Rp843
sg29
Nsbg30
(g34
S'\xba_\r\xfd,2\xee?'
p844
tp845
Rp846
sg4
(g15
g6
Ntp847
Rp848
(dp849
g10
g4
(g11
g6
Ntp850
Rp851
((dp852
g848
F1.0
stp853
bsg23
F0.0
sg24
g4
(g25
g26
F6.37681681049151e-05
tp854
Rp855
sg29
Nsbg30
(g34
S'\xd5\xcf\xce\x88@\x10\xd5?'
p856
tp857
Rp858
sg4
(g15
g6
Ntp859
Rp860
(dp861
g10
g4
(g11
g6
Ntp862
Rp863
((dp864
g860
F1.0
stp865
bsg23
F0.0
sg24
g4
(g25
g26
F0.0012040163169172258
tp866
Rp867
sg29
Nsbg30
(g34
S'\xdf\x93\xb2\x19k!\xa2?'
p868
tp869
Rp870
sg4
(g15
g6
Ntp871
Rp872
(dp873
g10
g4
(g11
g6
Ntp874
Rp875
((dp876
g872
F1.0
stp877
bsg23
F0.0
sg24
g4
(g25
g26
F2.307004084425154
tp878
Rp879
sg29
Nsbg30
(g34
S'\xb7\x98\x15m\xb4\xae\xf1>'
p880
tp881
Rp882
stp883
bsg23
F-8.512756021255705e-05
sbg4
(g5
g6
Ntp884
Rp885
(dp886
g10
g4
(g11
g6
Ntp887
Rp888
((dp889
g836
g30
(g34
S'\xbe\x95\xe1\xfc\xdd\xb9\x92?'
p890
tp891
Rp892
sg848
g30
(g34
S'\x95\xfb\xe0\x90\x99&\xac?'
p893
tp894
Rp895
sg860
g30
(g34
S'\xd4jew<\xf2\xef\xbf'
p896
tp897
Rp898
sg872
g30
(g34
S'\x00 \t\xa1o\x8e*\xbf'
p899
tp900
Rp901
stp902
bsg23
F1.0015409754743252
sbg4
(g5
g6
Ntp903
Rp904
(dp905
g10
g4
(g11
g6
Ntp906
Rp907
((dp908
g836
g30
(g34
S"\x92e\xd1y\x17'\xd5?"
p909
tp910
Rp911
sg848
g30
(g34
S'\xba\x9300~*\xee\xbf'
p912
tp913
Rp914
sg860
g30
(g34
S'\xd1`A\xc6t{\xa7\xbf'
p915
tp916
Rp917
sg872
g30
(g34
S'p\x07\tlY\xd5\xc8\xbe'
p918
tp919
Rp920
stp921
bsg23
F0.0007722888040317144
sbg4
(g5
g6
Ntp922
Rp923
(dp924
g10
g4
(g11
g6
Ntp925
Rp926
((dp927
g836
g30
(g34
S'\x000i\xa6\x8b\x8c\xe7\xbe'
p928
tp929
Rp930
sg848
g30
(g34
S'\x00\xc0\xb2\x9f%{\xc7>'
p931
tp932
Rp933
sg860
g30
(g34
S'\x00@\xfdJ\x9b\x9b*\xbf'
p934
tp935
Rp936
sg872
g30
(g34
S'j\xe3\xe6\xf4\xff\xff\xef?'
p937
tp938
Rp939
stp940
bsg23
F35.98874994537865
sbtp941
sg135
g136
ssS'effRecoBB'
p942
(dp943
g3
(g4
(g5
g6
Ntp944
Rp945
(dp946
g10
g4
(g11
g6
Ntp947
Rp948
((dp949
g4
(g15
g6
Ntp950
Rp951
(dp952
g10
g4
(g11
g6
Ntp953
Rp954
((dp955
g951
F1.0
stp956
bsg23
F0.0
sg24
g4
(g25
g26
F1.6691769580248272e-05
tp957
Rp958
sg29
Nsbg30
(g34
S'm\xe3\xab\xf5\xfb\xcd\xed?'
p959
tp960
Rp961
sg4
(g15
g6
Ntp962
Rp963
(dp964
g10
g4
(g11
g6
Ntp965
Rp966
((dp967
g963
F1.0
stp968
bsg23
F0.0
sg24
g4
(g25
g26
F0.00011244879487974085
tp969
Rp970
sg29
Nsbg30
(g34
S'Q\xca\x1e\xa1(,\xd7?'
p971
tp972
Rp973
sg4
(g15
g6
Ntp974
Rp975
(dp976
g10
g4
(g11
g6
Ntp977
Rp978
((dp979
g975
F1.0
stp980
bsg23
F0.0
sg24
g4
(g25
g26
F5.883588823567683
tp981
Rp982
sg29
Nsbg30
(g34
S'\xf6\xe81\xdan\xb0\xea>'
p983
tp984
Rp985
sg4
(g15
g6
Ntp986
Rp987
(dp988
g10
g4
(g11
g6
Ntp989
Rp990
((dp991
g987
F1.0
stp992
bsg23
F0.0
sg24
g4
(g25
g26
F0.0021963076855836547
tp993
Rp994
sg29
Nsbg30
(g34
S"\xc1'\xc0|\x918\xa3?"
p995
tp996
Rp997
stp998
bsg23
F8.820690770299457e-05
sbg4
(g5
g6
Ntp999
Rp1000
(dp1001
g10
g4
(g11
g6
Ntp1002
Rp1003
((dp1004
g951
g30
(g34
S'P\xf0\xe5\x0e\xb9m\x92?'
p1005
tp1006
Rp1007
sg963
g30
(g34
S'3\xc2\x92 \xabI\xad?'
p1008
tp1009
Rp1010
sg975
g30
(g34
S'\x00\xf0\xe3]\x91\xa5"\xbf'
p1011
tp1012
Rp1013
sg987
g30
(g34
S'v\x9b?\xe0A\xf1\xef\xbf'
p1014
tp1015
Rp1016
stp1017
bsg23
F0.9993323322177247
sbg4
(g5
g6
Ntp1018
Rp1019
(dp1020
g10
g4
(g11
g6
Ntp1021
Rp1022
((dp1023
g951
g30
(g34
S'X\xed\x8a\xad\xaaD\xd7?'
p1024
tp1025
Rp1026
sg963
g30
(g34
S'\x1b\xca\xc5\xa4\xc9\xc5\xed\xbf'
p1027
tp1028
Rp1029
sg975
g30
(g34
S'\xd0Xvbu\xd0\xcf\xbe'
p1030
tp1031
Rp1032
sg987
g30
(g34
S'\xccr*\xce6\xf1\xa7\xbf'
p1033
tp1034
Rp1035
stp1036
bsg23
F0.0005354480108946466
sbg4
(g5
g6
Ntp1037
Rp1038
(dp1039
g10
g4
(g11
g6
Ntp1040
Rp1041
((dp1042
g951
g30
(g34
S'\x00\x00\x95\xf9\xe4\x98\xe0\xbe'
p1043
tp1044
Rp1045
sg963
g30
(g34
S'\x00\x00\x00\xc4"q\x18>'
p1046
tp1047
Rp1048
sg975
g30
(g34
S'\x9d\x13\x85\xfa\xff\xff\xef?'
p1049
tp1050
Rp1051
sg987
g30
(g34
S'\x00 \x0e\x81\xf5\xb2"\xbf'
p1052
tp1053
Rp1054
stp1055
bsg23
F33.490996546125885
sbtp1056
sg135
g136
ssS'effEE'
p1057
(dp1058
g3
(g4
(g5
g6
Ntp1059
Rp1060
(dp1061
g10
g4
(g11
g6
Ntp1062
Rp1063
((dp1064
g4
(g15
g6
Ntp1065
Rp1066
(dp1067
g10
g4
(g11
g6
Ntp1068
Rp1069
((dp1070
g1066
F1.0
stp1071
bsg23
F0.0
sg24
g4
(g25
g26
F1.4326827925440682e-05
tp1072
Rp1073
sg29
Nsbg30
(g34
S'\x17\xe1\xe6iF7\xec?'
p1074
tp1075
Rp1076
sg4
(g15
g6
Ntp1077
Rp1078
(dp1079
g10
g4
(g11
g6
Ntp1080
Rp1081
((dp1082
g1078
F1.0
stp1083
bsg23
F0.0
sg24
g4
(g25
g26
F0.00011103148376921895
tp1084
Rp1085
sg29
Nsbg30
(g34
S'fO\xd3\xb4\xcd\x08\xde?'
p1086
tp1087
Rp1088
sg4
(g15
g6
Ntp1089
Rp1090
(dp1091
g10
g4
(g11
g6
Ntp1092
Rp1093
((dp1094
g1090
F1.0
stp1095
bsg23
F0.0
sg24
g4
(g25
g26
F2.983416148360117
tp1096
Rp1097
sg29
Nsbg30
(g34
S'\xacR\xcdF\x99!\x08?'
p1098
tp1099
Rp1100
sg4
(g15
g6
Ntp1101
Rp1102
(dp1103
g10
g4
(g11
g6
Ntp1104
Rp1105
((dp1106
g1102
F1.0
stp1107
bsg23
F0.0
sg24
g4
(g25
g26
F0.0022667651577307104
tp1108
Rp1109
sg29
Nsbg30
(g34
S"\xf1PD'z\x81\xa8?"
p1110
tp1111
Rp1112
stp1113
bsg23
F0.00019031667222940636
sbg4
(g5
g6
Ntp1114
Rp1115
(dp1116
g10
g4
(g11
g6
Ntp1117
Rp1118
((dp1119
g1066
g30
(g34
S'M\xfd\xf5%\xa7O\x91?'
p1120
tp1121
Rp1122
sg1078
g30
(g34
S'b\x93-\xfa\x0b\xe9\xb1?'
p1123
tp1124
Rp1125
sg1090
g30
(g34
S'\x00h\x1e?\xff"9\xbf'
p1126
tp1127
Rp1128
sg1102
g30
(g34
S'\xf4\xa7\xd1\xa1\xc0\xea\xef\xbf'
p1129
tp1130
Rp1131
stp1132
bsg23
F1.0035593270318748
sbg4
(g5
g6
Ntp1133
Rp1134
(dp1135
g10
g4
(g11
g6
Ntp1136
Rp1137
((dp1138
g1066
g30
(g34
S'nF,\x9e\xb9+\xde?'
p1139
tp1140
Rp1141
sg1078
g30
(g34
S'\xdb=#K++\xec\xbf'
p1142
tp1143
Rp1144
sg1090
g30
(g34
S'h\xb7\xaaR\x10\x8c\x03\xbf'
p1145
tp1146
Rp1147
sg1102
g30
(g34
S'fn\xa6\x8e\xd8\x85\xab\xbf'
p1148
tp1149
Rp1150
stp1151
bsg23
F0.00106308583328261
sbg4
(g5
g6
Ntp1152
Rp1153
(dp1154
g10
g4
(g11
g6
Ntp1155
Rp1156
((dp1157
g1066
g30
(g34
S'\x00x\x89w\x90S\xf1\xbe'
p1158
tp1159
Rp1160
sg1078
g30
(g34
S'\x00\x90g\x94\xad\xec\xfc\xbe'
p1161
tp1162
Rp1163
sg1090
g30
(g34
S'\xaa;\x91\xd7\xff\xff\xef?'
p1164
tp1165
Rp1166
sg1102
g30
(g34
S'\x00\xc0/.\xe4X9\xbf'
p1167
tp1168
Rp1169
stp1170
bsg23
F24.999991344559543
sbtp1171
sg135
g136
ssS'effTrgEE'
p1172
(dp1173
g3
(g4
(g5
g6
Ntp1174
Rp1175
(dp1176
g10
g4
(g11
g6
Ntp1177
Rp1178
((dp1179
g4
(g15
g6
Ntp1180
Rp1181
(dp1182
g10
g4
(g11
g6
Ntp1183
Rp1184
((dp1185
g1181
F1.0
stp1186
bsg23
F0.0
sg24
g4
(g25
g26
F1.313772674378362e-05
tp1187
Rp1188
sg29
Nsbg30
(g34
S'h\xb3+\xc5\xc1h\xec?'
p1189
tp1190
Rp1191
sg4
(g15
g6
Ntp1192
Rp1193
(dp1194
g10
g4
(g11
g6
Ntp1195
Rp1196
((dp1197
g1193
F1.0
stp1198
bsg23
F0.0
sg24
g4
(g25
g26
F9.954060322498144e-05
tp1199
Rp1200
sg29
Nsbg30
(g34
S'\xb9\xb0\xa4ZNN\xdd?'
p1201
tp1202
Rp1203
sg4
(g15
g6
Ntp1204
Rp1205
(dp1206
g10
g4
(g11
g6
Ntp1207
Rp1208
((dp1209
g1205
F1.0
stp1210
bsg23
F0.0
sg24
g4
(g25
g26
F2.0532494795313077
tp1211
Rp1212
sg29
Nsbg30
(g34
S'\xd8\xa9\xbclTq\n?'
p1213
tp1214
Rp1215
sg4
(g15
g6
Ntp1216
Rp1217
(dp1218
g10
g4
(g11
g6
Ntp1219
Rp1220
((dp1221
g1217
F1.0
stp1222
bsg23
F0.0
sg24
g4
(g25
g26
F0.0020313299546621754
tp1223
Rp1224
sg29
Nsbg30
(g34
S'#\x0fi@\xc4\xc6\xa7?'
p1225
tp1226
Rp1227
stp1228
bsg23
F9.974605707562114e-05
sbg4
(g5
g6
Ntp1229
Rp1230
(dp1231
g10
g4
(g11
g6
Ntp1232
Rp1233
((dp1234
g1181
g30
(g34
S'\xa2\xf0s\xd0\xc4p\x91?'
p1235
tp1236
Rp1237
sg1193
g30
(g34
S'\xef\x82K\x05\xd6q\xb1?'
p1238
tp1239
Rp1240
sg1205
g30
(g34
S'\x00H\x1f\xd3\xcf\xac<\xbf'
p1241
tp1242
Rp1243
sg1217
g30
(g34
S'\xca\x81x*\xc4\xeb\xef\xbf'
p1244
tp1245
Rp1246
stp1247
bsg23
F1.0051432533437201
sbg4
(g5
g6
Ntp1248
Rp1249
(dp1250
g10
g4
(g11
g6
Ntp1251
Rp1252
((dp1253
g1181
g30
(g34
S'\xb7\xafy\x83\x9fo\xdd?'
p1254
tp1255
Rp1256
sg1193
g30
(g34
S'\xb0\xd4h\x0cF]\xec\xbf'
p1257
tp1258
Rp1259
sg1205
g30
(g34
S'l\x1d\x0c\xb2k3\x03\xbf'
p1260
tp1261
Rp1262
sg1217
g30
(g34
S'%\xe1\xd9a5\xfb\xaa\xbf'
p1263
tp1264
Rp1265
stp1266
bsg23
F0.0013298185397009217
sbg4
(g5
g6
Ntp1267
Rp1268
(dp1269
g10
g4
(g11
g6
Ntp1270
Rp1271
((dp1272
g1181
g30
(g34
S'\x00\xcckGsy\xf5\xbe'
p1273
tp1274
Rp1275
sg1193
g30
(g34
S'\x00\xe008\xb4\xfd\xfa\xbe'
p1276
tp1277
Rp1278
sg1205
g30
(g34
S'\n\xe5\x90\xcb\xff\xff\xef?'
p1279
tp1280
Rp1281
sg1217
g30
(g34
S'\x00\x00{\xd0Z\xe2<\xbf'
p1282
tp1283
Rp1284
stp1285
bsg23
F25.949083073130677
sbtp1286
sg135
g136
ssS'HLTE'
p1287
(dp1288
g3
(g4
(g5
g6
Ntp1289
Rp1290
(dp1291
g10
g4
(g11
g6
Ntp1292
Rp1293
((dp1294
g4
(g15
g6
Ntp1295
Rp1296
(dp1297
g10
g4
(g11
g6
Ntp1298
Rp1299
((dp1300
g1296
F1.0
stp1301
bsg23
F0.0
sg24
g4
(g25
g26
F1.0355177810234686e-05
tp1302
Rp1303
sg29
Nsbg30
(g34
S'\xf3\x85\xebt\x19\xe4\xec?'
p1304
tp1305
Rp1306
sg4
(g15
g6
Ntp1307
Rp1308
(dp1309
g10
g4
(g11
g6
Ntp1310
Rp1311
((dp1312
g1308
F1.0
stp1313
bsg23
F0.0
sg24
g4
(g25
g26
F7.444278114067015e-05
tp1314
Rp1315
sg29
Nsbg30
(g34
S'\xd0P\xd9\xf80a\xdb?'
p1316
tp1317
Rp1318
sg4
(g15
g6
Ntp1319
Rp1320
(dp1321
g10
g4
(g11
g6
Ntp1322
Rp1323
((dp1324
g1320
F1.0
stp1325
bsg23
F0.0
sg24
g4
(g25
g26
F0.0015118897560951767
tp1326
Rp1327
sg29
Nsbg30
(g34
S'n\xf2\x03,\xf3\n\xa6?'
p1328
tp1329
Rp1330
sg4
(g15
g6
Ntp1331
Rp1332
(dp1333
g10
g4
(g11
g6
Ntp1334
Rp1335
((dp1336
g1332
F1.0
stp1337
bsg23
F0.0
sg24
g4
(g25
g26
F1.5419839204073114
tp1338
Rp1339
sg29
Nsbg30
(g34
S'We\x801\x91k\x08?'
p1340
tp1341
Rp1342
stp1343
bsg23
F0.00011836465123305469
sbg4
(g5
g6
Ntp1344
Rp1345
(dp1346
g10
g4
(g11
g6
Ntp1347
Rp1348
((dp1349
g1296
g30
(g34
S'[\xeaY\xc8\x07\xc5\x91?'
p1350
tp1351
Rp1352
sg1308
g30
(g34
S'1\xf4\x9f\x95\xb5T\xb0?'
p1353
tp1354
Rp1355
sg1320
g30
(g34
S'8\xc8r\xd8\x13\xee\xef\xbf'
p1356
tp1357
Rp1358
sg1332
g30
(g34
S'\x00(\x06\x90\xff\xf1<\xbf'
p1359
tp1360
Rp1361
stp1362
bsg23
F1.0036165859837554
sbg4
(g5
g6
Ntp1363
Rp1364
(dp1365
g10
g4
(g11
g6
Ntp1366
Rp1367
((dp1368
g1296
g30
(g34
S'\xa0GF\xc4\xda~\xdb?'
p1369
tp1370
Rp1371
sg1308
g30
(g34
S')H\x12\x06\n\xda\xec\xbf'
p1372
tp1373
Rp1374
sg1320
g30
(g34
S'/\xe9\xe2\xcf\x00\xb0\xa9\xbf'
p1375
tp1376
Rp1377
sg1332
g30
(g34
S'\xbc\xe9\xc0\xbf\x90e\x00\xbf'
p1378
tp1379
Rp1380
stp1381
bsg23
F0.001363720200328348
sbg4
(g5
g6
Ntp1382
Rp1383
(dp1384
g10
g4
(g11
g6
Ntp1385
Rp1386
((dp1387
g1296
g30
(g34
S'\x00\x84xxK\xf8\xf5\xbe'
p1388
tp1389
Rp1390
sg1308
g30
(g34
S'\x00\x00a\xef\xde\xea\xf4\xbe'
p1391
tp1392
Rp1393
sg1320
g30
(g34
S'\x00\xb8dB\xc1\x1d=\xbf'
p1394
tp1395
Rp1396
sg1332
g30
(g34
S'vh\xca\xca\xff\xff\xef?'
p1397
tp1398
Rp1399
stp1400
bsg23
F28.38817148192299
sbtp1401
sg135
g136
ssS'effBE'
p1402
(dp1403
g3
(g4
(g5
g6
Ntp1404
Rp1405
(dp1406
g10
g4
(g11
g6
Ntp1407
Rp1408
((dp1409
g4
(g15
g6
Ntp1410
Rp1411
(dp1412
g10
g4
(g11
g6
Ntp1413
Rp1414
((dp1415
g1411
F1.0
stp1416
bsg23
F0.0
sg24
g4
(g25
g26
F1.1795405388035555e-05
tp1417
Rp1418
sg29
Nsbg30
(g34
S'_h\xd9\xa4\xc0\xd1\xed?'
p1419
tp1420
Rp1421
sg4
(g15
g6
Ntp1422
Rp1423
(dp1424
g10
g4
(g11
g6
Ntp1425
Rp1426
((dp1427
g1423
F1.0
stp1428
bsg23
F0.0
sg24
g4
(g25
g26
F7.942469096061287e-05
tp1429
Rp1430
sg29
Nsbg30
(g34
S'-(T\x81\xde\x18\xd7?'
p1431
tp1432
Rp1433
sg4
(g15
g6
Ntp1434
Rp1435
(dp1436
g10
g4
(g11
g6
Ntp1437
Rp1438
((dp1439
g1435
F1.0
stp1440
bsg23
F0.0
sg24
g4
(g25
g26
F1.1971023158031728
tp1441
Rp1442
sg29
Nsbg30
(g34
S'-\x06\xd9\xda-F\x07?'
p1443
tp1444
Rp1445
sg4
(g15
g6
Ntp1446
Rp1447
(dp1448
g10
g4
(g11
g6
Ntp1449
Rp1450
((dp1451
g1447
F1.0
stp1452
bsg23
F0.0
sg24
g4
(g25
g26
F0.0015495613782081203
tp1453
Rp1454
sg29
Nsbg30
(g34
S'{n\xce\x1b:.\xa3?'
p1455
tp1456
Rp1457
stp1458
bsg23
F5.323921456813118e-05
sbg4
(g5
g6
Ntp1459
Rp1460
(dp1461
g10
g4
(g11
g6
Ntp1462
Rp1463
((dp1464
g1411
g30
(g34
S'\xddUj|\x8cp\x92?'
p1465
tp1466
Rp1467
sg1423
g30
(g34
S'\x8d\xb7\x07\xd5\xef>\xad?'
p1468
tp1469
Rp1470
sg1435
g30
(g34
S'\x00\xb4\xc6d\x8dN@\xbf'
p1471
tp1472
Rp1473
sg1447
g30
(g34
S'\xfe\xff\xe2\x0fK\xf1\xef\xbf'
p1474
tp1475
Rp1476
stp1477
bsg23
F1.0032453833699773
sbg4
(g5
g6
Ntp1478
Rp1479
(dp1480
g10
g4
(g11
g6
Ntp1481
Rp1482
((dp1483
g1411
g30
(g34
S'\xa0\xfd\xbdsP1\xd7?'
p1484
tp1485
Rp1486
sg1423
g30
(g34
S'!\x8f\xb8>\x93\xc9\xed\xbf'
p1487
tp1488
Rp1489
sg1435
g30
(g34
S'\xc8,2L\x00_\xec\xbe'
p1490
tp1491
Rp1492
sg1447
g30
(g34
S'L\x88[\t\xee\xec\xa7\xbf'
p1493
tp1494
Rp1495
stp1496
bsg23
F0.0018599983876170674
sbg4
(g5
g6
Ntp1497
Rp1498
(dp1499
g10
g4
(g11
g6
Ntp1500
Rp1501
((dp1502
g1411
g30
(g34
S'\x00\x14\x8d\xfa\xc5\xd6\xfc\xbe'
p1503
tp1504
Rp1505
sg1423
g30
(g34
S'\x00\x00\x18\xba\x0c5\x89\xbe'
p1506
tp1507
Rp1508
sg1435
g30
(g34
S'h\x8e\xf1\xbc\xff\xff\xef?'
p1509
tp1510
Rp1511
sg1447
g30
(g34
S'\x00\x1cP\xd5OZ@\xbf'
p1512
tp1513
Rp1514
stp1515
bsg23
F33.58095704250437
sbtp1516
sg135
g136
ssS'HLTB'
p1517
(dp1518
g3
(g4
(g5
g6
Ntp1519
Rp1520
(dp1521
g10
g4
(g11
g6
Ntp1522
Rp1523
((dp1524
g4
(g15
g6
Ntp1525
Rp1526
(dp1527
g10
g4
(g11
g6
Ntp1528
Rp1529
((dp1530
g1526
F1.0
stp1531
bsg23
F0.0
sg24
g4
(g25
g26
F9.137912136305173e-06
tp1532
Rp1533
sg29
Nsbg30
(g34
S'\\\xa2I\xdf0\xd7\xed?'
p1534
tp1535
Rp1536
sg4
(g15
g6
Ntp1537
Rp1538
(dp1539
g10
g4
(g11
g6
Ntp1540
Rp1541
((dp1542
g1538
F1.0
stp1543
bsg23
F0.0
sg24
g4
(g25
g26
F6.148622648679228e-05
tp1544
Rp1545
sg29
Nsbg30
(g34
S'F\x85\xe7/\xe7\xfc\xd6?'
p1546
tp1547
Rp1548
sg4
(g15
g6
Ntp1549
Rp1550
(dp1551
g10
g4
(g11
g6
Ntp1552
Rp1553
((dp1554
g1550
F1.0
stp1555
bsg23
F0.0
sg24
g4
(g25
g26
F1.2863808143571538
tp1556
Rp1557
sg29
Nsbg30
(g34
S'\xe5\n\xd9\xe9\xfc\xe1\x00?'
p1558
tp1559
Rp1560
sg4
(g15
g6
Ntp1561
Rp1562
(dp1563
g10
g4
(g11
g6
Ntp1564
Rp1565
((dp1566
g1562
F1.0
stp1567
bsg23
F0.0
sg24
g4
(g25
g26
F0.0011976427101297478
tp1568
Rp1569
sg29
Nsbg30
(g34
S'\xc0\xadE\x9d1\x1f\xa3?'
p1570
tp1571
Rp1572
stp1573
bsg23
F0.00014259411252369607
sbg4
(g5
g6
Ntp1574
Rp1575
(dp1576
g10
g4
(g11
g6
Ntp1577
Rp1578
((dp1579
g1526
g30
(g34
S'y\xc8q\x17\xa2t\x92?'
p1580
tp1581
Rp1582
sg1538
g30
(g34
S'\xfc\r\x94\x0b)/\xad?'
p1583
tp1584
Rp1585
sg1550
g30
(g34
S'\x00\x10\xcb\xb5\xb0\xc07\xbf'
p1586
tp1587
Rp1588
sg1562
g30
(g34
S'j\x81\x1a\x06Y\xf1\xef\xbf'
p1589
tp1590
Rp1591
stp1592
bsg23
F1.0014424893201774
sbg4
(g5
g6
Ntp1593
Rp1594
(dp1595
g10
g4
(g11
g6
Ntp1596
Rp1597
((dp1598
g1526
g30
(g34
S'\xc2f\xca\x97A\x15\xd7?'
p1599
tp1600
Rp1601
sg1538
g30
(g34
S'\x11v\x9f\xc4\n\xcf\xed\xbf'
p1602
tp1603
Rp1604
sg1550
g30
(g34
S'\x08r\xc8?\xda:\xe5\xbe'
p1605
tp1606
Rp1607
sg1562
g30
(g34
S'$h\x10\xcb{\xe6\xa7\xbf'
p1608
tp1609
Rp1610
stp1611
bsg23
F0.0013412974612758174
sbg4
(g5
g6
Ntp1612
Rp1613
(dp1614
g10
g4
(g11
g6
Ntp1615
Rp1616
((dp1617
g1526
g30
(g34
S'\x00,\xe1\xea\x15\xcf\xf4\xbe'
p1618
tp1619
Rp1620
sg1538
g30
(g34
S'\x00\x00x\xbb\xac\xa0\x96\xbe'
p1621
tp1622
Rp1623
sg1550
g30
(g34
S'\xac\xa6n\xdc\xff\xff\xef?'
p1624
tp1625
Rp1626
sg1562
g30
(g34
S'\x00xls\xeb\xd17\xbf'
p1627
tp1628
Rp1629
stp1630
bsg23
F33.71100876436445
sbtp1631
sg135
g136
ssS'effReco'
p1632
(dp1633
g3
(g4
(g5
g6
Ntp1634
Rp1635
(dp1636
g10
g4
(g11
g6
Ntp1637
Rp1638
((dp1639
g4
(g15
g6
Ntp1640
Rp1641
(dp1642
g10
g4
(g11
g6
Ntp1643
Rp1644
((dp1645
g1641
F1.0
stp1646
bsg23
F0.0
sg24
g4
(g25
g26
F6.32815514763391e-06
tp1647
Rp1648
sg29
Nsbg30
(g34
S'9\x17\xfbhQd\xee?'
p1649
tp1650
Rp1651
sg4
(g15
g6
Ntp1652
Rp1653
(dp1654
g10
g4
(g11
g6
Ntp1655
Rp1656
((dp1657
g1653
F1.0
stp1658
bsg23
F0.0
sg24
g4
(g25
g26
F4.217914256748002e-05
tp1659
Rp1660
sg29
Nsbg30
(g34
S'_\xe9\xda%\x95\xe9\xd3?'
p1661
tp1662
Rp1663
sg4
(g15
g6
Ntp1664
Rp1665
(dp1666
g10
g4
(g11
g6
Ntp1667
Rp1668
((dp1669
g1665
F1.0
stp1670
bsg23
F0.0
sg24
g4
(g25
g26
F3.3803547893986314
tp1671
Rp1672
sg29
Nsbg30
(g34
S'\x89(\x00\xa4j\x86\xdb>'
p1673
tp1674
Rp1675
sg4
(g15
g6
Ntp1676
Rp1677
(dp1678
g10
g4
(g11
g6
Ntp1679
Rp1680
((dp1681
g1677
F1.0
stp1682
bsg23
F0.0
sg24
g4
(g25
g26
F0.0007790763115905808
tp1683
Rp1684
sg29
Nsbg30
(g34
S'J\xf2u\xa80\x96\xa1?'
p1685
tp1686
Rp1687
stp1688
bsg23
F1.483680375563342e-05
sbg4
(g5
g6
Ntp1689
Rp1690
(dp1691
g10
g4
(g11
g6
Ntp1692
Rp1693
((dp1694
g1641
g30
(g34
S'\x12&\xfb\x18\xdf\xe0\x92?'
p1695
tp1696
Rp1697
sg1653
g30
(g34
S'\x9f\x92\xba\x92\x89\x9e\xab?'
p1698
tp1699
Rp1700
sg1665
g30
(g34
S'\x00\x80\x99H\xacn\x15\xbf'
p1701
tp1702
Rp1703
sg1677
g30
(g34
S'\xc7!\x96\x86\xad\xf2\xef\xbf'
p1704
tp1705
Rp1706
stp1707
bsg23
F0.9997722274364608
sbg4
(g5
g6
Ntp1708
Rp1709
(dp1710
g10
g4
(g11
g6
Ntp1711
Rp1712
((dp1713
g1641
g30
(g34
S'@h\xbc\xa4\xa6\xff\xd3?'
p1714
tp1715
Rp1716
sg1653
g30
(g34
S'\xb9?\xe6]\xda\\\xee\xbf'
p1717
tp1718
Rp1719
sg1665
g30
(g34
S' \x1c\xb9\x97\xadC\xa4>'
p1720
tp1721
Rp1722
sg1677
g30
(g34
S'\x96\x1c\xf59bK\xa7\xbf'
p1723
tp1724
Rp1725
stp1726
bsg23
F0.0003465361038080696
sbg4
(g5
g6
Ntp1727
Rp1728
(dp1729
g10
g4
(g11
g6
Ntp1730
Rp1731
((dp1732
g1641
g30
(g34
S'\x00\xe0\xda\xc7\x80\x9c\xd4\xbe'
p1733
tp1734
Rp1735
sg1653
g30
(g34
S'\x00\x80\x8e{\xf5\xac\xc8>'
p1736
tp1737
Rp1738
sg1665
g30
(g34
S'\xd8\xab1\xfe\xff\xff\xef?'
p1739
tp1740
Rp1741
sg1677
g30
(g34
S'\x00\xa0I\xa3\x08s\x15\xbf'
p1742
tp1743
Rp1744
stp1745
bsg23
F37.344186585603204
sbtp1746
sg135
g136
ss.